(lp0
S'/usr/local/lib/erlang/lib'
p1
aS'/usr/local/lib/erlang/lib/appmon-2.1.14'
p2
aS'/usr/local/lib/erlang/lib/appmon-2.1.14/ebin'
p3
aS'/usr/local/lib/erlang/lib/appmon-2.1.14/priv'
p4
aS'/usr/local/lib/erlang/lib/appmon-2.1.14/src'
p5
aS'/usr/local/lib/erlang/lib/asn1-1.6.19'
p6
aS'/usr/local/lib/erlang/lib/asn1-1.6.19/c_src'
p7
aS'/usr/local/lib/erlang/lib/asn1-1.6.19/ebin'
p8
aS'/usr/local/lib/erlang/lib/asn1-1.6.19/examples'
p9
aS'/usr/local/lib/erlang/lib/asn1-1.6.19/priv'
p10
aS'/usr/local/lib/erlang/lib/asn1-1.6.19/priv/lib'
p11
aS'/usr/local/lib/erlang/lib/asn1-1.6.19/src'
p12
aS'/usr/local/lib/erlang/lib/common_test-1.6'
p13
aS'/usr/local/lib/erlang/lib/common_test-1.6/ebin'
p14
aS'/usr/local/lib/erlang/lib/common_test-1.6/include'
p15
aS'/usr/local/lib/erlang/lib/common_test-1.6/priv'
p16
aS'/usr/local/lib/erlang/lib/common_test-1.6/src'
p17
aS'/usr/local/lib/erlang/lib/compiler-4.8'
p18
aS'/usr/local/lib/erlang/lib/compiler-4.8/ebin'
p19
aS'/usr/local/lib/erlang/lib/compiler-4.8/src'
p20
aS'/usr/local/lib/erlang/lib/cosEvent-2.1.12'
p21
aS'/usr/local/lib/erlang/lib/cosEvent-2.1.12/ebin'
p22
aS'/usr/local/lib/erlang/lib/cosEvent-2.1.12/include'
p23
aS'/usr/local/lib/erlang/lib/cosEvent-2.1.12/src'
p24
aS'/usr/local/lib/erlang/lib/cosEventDomain-1.1.12'
p25
aS'/usr/local/lib/erlang/lib/cosEventDomain-1.1.12/ebin'
p26
aS'/usr/local/lib/erlang/lib/cosEventDomain-1.1.12/include'
p27
aS'/usr/local/lib/erlang/lib/cosEventDomain-1.1.12/src'
p28
aS'/usr/local/lib/erlang/lib/cosFileTransfer-1.1.13'
p29
aS'/usr/local/lib/erlang/lib/cosFileTransfer-1.1.13/ebin'
p30
aS'/usr/local/lib/erlang/lib/cosFileTransfer-1.1.13/include'
p31
aS'/usr/local/lib/erlang/lib/cosFileTransfer-1.1.13/src'
p32
aS'/usr/local/lib/erlang/lib/cosNotification-1.1.18'
p33
aS'/usr/local/lib/erlang/lib/cosNotification-1.1.18/ebin'
p34
aS'/usr/local/lib/erlang/lib/cosNotification-1.1.18/include'
p35
aS'/usr/local/lib/erlang/lib/cosNotification-1.1.18/src'
p36
aS'/usr/local/lib/erlang/lib/cosProperty-1.1.15'
p37
aS'/usr/local/lib/erlang/lib/cosProperty-1.1.15/ebin'
p38
aS'/usr/local/lib/erlang/lib/cosProperty-1.1.15/include'
p39
aS'/usr/local/lib/erlang/lib/cosProperty-1.1.15/src'
p40
aS'/usr/local/lib/erlang/lib/cosTime-1.1.12'
p41
aS'/usr/local/lib/erlang/lib/cosTime-1.1.12/ebin'
p42
aS'/usr/local/lib/erlang/lib/cosTime-1.1.12/include'
p43
aS'/usr/local/lib/erlang/lib/cosTime-1.1.12/src'
p44
aS'/usr/local/lib/erlang/lib/cosTransactions-1.2.12'
p45
aS'/usr/local/lib/erlang/lib/cosTransactions-1.2.12/ebin'
p46
aS'/usr/local/lib/erlang/lib/cosTransactions-1.2.12/include'
p47
aS'/usr/local/lib/erlang/lib/cosTransactions-1.2.12/src'
p48
aS'/usr/local/lib/erlang/lib/crypto-2.1'
p49
aS'/usr/local/lib/erlang/lib/crypto-2.1/ebin'
p50
aS'/usr/local/lib/erlang/lib/crypto-2.1/priv'
p51
aS'/usr/local/lib/erlang/lib/crypto-2.1/priv/lib'
p52
aS'/usr/local/lib/erlang/lib/crypto-2.1/priv/obj'
p53
aS'/usr/local/lib/erlang/lib/crypto-2.1/src'
p54
aS'/usr/local/lib/erlang/lib/debugger-3.2.7'
p55
aS'/usr/local/lib/erlang/lib/debugger-3.2.7/ebin'
p56
aS'/usr/local/lib/erlang/lib/debugger-3.2.7/priv'
p57
aS'/usr/local/lib/erlang/lib/debugger-3.2.7/src'
p58
aS'/usr/local/lib/erlang/lib/dialyzer-2.5'
p59
aS'/usr/local/lib/erlang/lib/dialyzer-2.5/ebin'
p60
aS'/usr/local/lib/erlang/lib/dialyzer-2.5/src'
p61
aS'/usr/local/lib/erlang/lib/diameter-1.0'
p62
aS'/usr/local/lib/erlang/lib/diameter-1.0/bin'
p63
aS'/usr/local/lib/erlang/lib/diameter-1.0/ebin'
p64
aS'/usr/local/lib/erlang/lib/diameter-1.0/examples'
p65
aS'/usr/local/lib/erlang/lib/diameter-1.0/include'
p66
aS'/usr/local/lib/erlang/lib/diameter-1.0/src'
p67
aS'/usr/local/lib/erlang/lib/diameter-1.0/src/base'
p68
aS'/usr/local/lib/erlang/lib/diameter-1.0/src/compiler'
p69
aS'/usr/local/lib/erlang/lib/diameter-1.0/src/dict'
p70
aS'/usr/local/lib/erlang/lib/diameter-1.0/src/gen'
p71
aS'/usr/local/lib/erlang/lib/diameter-1.0/src/transport'
p72
aS'/usr/local/lib/erlang/lib/edoc-0.7.9.1'
p73
aS'/usr/local/lib/erlang/lib/edoc-0.7.9.1/ebin'
p74
aS'/usr/local/lib/erlang/lib/edoc-0.7.9.1/include'
p75
aS'/usr/local/lib/erlang/lib/edoc-0.7.9.1/priv'
p76
aS'/usr/local/lib/erlang/lib/edoc-0.7.9.1/src'
p77
aS'/usr/local/lib/erlang/lib/erl_docgen-0.3'
p78
aS'/usr/local/lib/erlang/lib/erl_docgen-0.3/ebin'
p79
aS'/usr/local/lib/erlang/lib/erl_docgen-0.3/priv'
p80
aS'/usr/local/lib/erlang/lib/erl_docgen-0.3/priv/bin'
p81
aS'/usr/local/lib/erlang/lib/erl_docgen-0.3/priv/css'
p82
aS'/usr/local/lib/erlang/lib/erl_docgen-0.3/priv/dtd'
p83
aS'/usr/local/lib/erlang/lib/erl_docgen-0.3/priv/dtd_html_entities'
p84
aS'/usr/local/lib/erlang/lib/erl_docgen-0.3/priv/dtd_man_entities'
p85
aS'/usr/local/lib/erlang/lib/erl_docgen-0.3/priv/images'
p86
aS'/usr/local/lib/erlang/lib/erl_docgen-0.3/priv/js'
p87
aS'/usr/local/lib/erlang/lib/erl_docgen-0.3/priv/js/flipmenu'
p88
aS'/usr/local/lib/erlang/lib/erl_docgen-0.3/priv/xsl'
p89
aS'/usr/local/lib/erlang/lib/erl_docgen-0.3/src'
p90
aS'/usr/local/lib/erlang/lib/erl_interface-3.7.6'
p91
aS'/usr/local/lib/erlang/lib/erl_interface-3.7.6/bin'
p92
aS'/usr/local/lib/erlang/lib/erl_interface-3.7.6/include'
p93
aS'/usr/local/lib/erlang/lib/erl_interface-3.7.6/lib'
p94
aS'/usr/local/lib/erlang/lib/erl_interface-3.7.6/src'
p95
aS'/usr/local/lib/erlang/lib/erl_interface-3.7.6/src/auxdir'
p96
aS'/usr/local/lib/erlang/lib/erl_interface-3.7.6/src/connect'
p97
aS'/usr/local/lib/erlang/lib/erl_interface-3.7.6/src/decode'
p98
aS'/usr/local/lib/erlang/lib/erl_interface-3.7.6/src/encode'
p99
aS'/usr/local/lib/erlang/lib/erl_interface-3.7.6/src/epmd'
p100
aS'/usr/local/lib/erlang/lib/erl_interface-3.7.6/src/legacy'
p101
aS'/usr/local/lib/erlang/lib/erl_interface-3.7.6/src/misc'
p102
aS'/usr/local/lib/erlang/lib/erl_interface-3.7.6/src/prog'
p103
aS'/usr/local/lib/erlang/lib/erl_interface-3.7.6/src/registry'
p104
aS'/usr/local/lib/erlang/lib/erts-5.9'
p105
aS'/usr/local/lib/erlang/lib/erts-5.9/ebin'
p106
aS'/usr/local/lib/erlang/lib/erts-5.9/src'
p107
aS'/usr/local/lib/erlang/lib/et-1.4.4'
p108
aS'/usr/local/lib/erlang/lib/et-1.4.4/ebin'
p109
aS'/usr/local/lib/erlang/lib/et-1.4.4/examples'
p110
aS'/usr/local/lib/erlang/lib/et-1.4.4/include'
p111
aS'/usr/local/lib/erlang/lib/et-1.4.4/src'
p112
aS'/usr/local/lib/erlang/lib/eunit-2.2.2'
p113
aS'/usr/local/lib/erlang/lib/eunit-2.2.2/ebin'
p114
aS'/usr/local/lib/erlang/lib/eunit-2.2.2/examples'
p115
aS'/usr/local/lib/erlang/lib/eunit-2.2.2/include'
p116
aS'/usr/local/lib/erlang/lib/eunit-2.2.2/src'
p117
aS'/usr/local/lib/erlang/lib/gs-1.5.15'
p118
aS'/usr/local/lib/erlang/lib/gs-1.5.15/contribs'
p119
aS'/usr/local/lib/erlang/lib/gs-1.5.15/contribs/bonk'
p120
aS'/usr/local/lib/erlang/lib/gs-1.5.15/contribs/bonk/bitmaps'
p121
aS'/usr/local/lib/erlang/lib/gs-1.5.15/contribs/bonk/sounds'
p122
aS'/usr/local/lib/erlang/lib/gs-1.5.15/contribs/cols'
p123
aS'/usr/local/lib/erlang/lib/gs-1.5.15/contribs/cols/bitmaps'
p124
aS'/usr/local/lib/erlang/lib/gs-1.5.15/contribs/ebin'
p125
aS'/usr/local/lib/erlang/lib/gs-1.5.15/contribs/mandel'
p126
aS'/usr/local/lib/erlang/lib/gs-1.5.15/contribs/mandel/bitmaps'
p127
aS'/usr/local/lib/erlang/lib/gs-1.5.15/contribs/othello'
p128
aS'/usr/local/lib/erlang/lib/gs-1.5.15/contribs/othello/priv'
p129
aS'/usr/local/lib/erlang/lib/gs-1.5.15/ebin'
p130
aS'/usr/local/lib/erlang/lib/gs-1.5.15/examples'
p131
aS'/usr/local/lib/erlang/lib/gs-1.5.15/examples/ebin'
p132
aS'/usr/local/lib/erlang/lib/gs-1.5.15/examples/src'
p133
aS'/usr/local/lib/erlang/lib/gs-1.5.15/priv'
p134
aS'/usr/local/lib/erlang/lib/gs-1.5.15/priv/bitmap'
p135
aS'/usr/local/lib/erlang/lib/gs-1.5.15/src'
p136
aS'/usr/local/lib/erlang/lib/hipe-3.9'
p137
aS'/usr/local/lib/erlang/lib/hipe-3.9/cerl'
p138
aS'/usr/local/lib/erlang/lib/hipe-3.9/ebin'
p139
aS'/usr/local/lib/erlang/lib/hipe-3.9/flow'
p140
aS'/usr/local/lib/erlang/lib/hipe-3.9/icode'
p141
aS'/usr/local/lib/erlang/lib/hipe-3.9/main'
p142
aS'/usr/local/lib/erlang/lib/hipe-3.9/misc'
p143
aS'/usr/local/lib/erlang/lib/hipe-3.9/rtl'
p144
aS'/usr/local/lib/erlang/lib/hipe-3.9/util'
p145
aS'/usr/local/lib/erlang/lib/ic-4.2.29'
p146
aS'/usr/local/lib/erlang/lib/ic-4.2.29/c_src'
p147
aS'/usr/local/lib/erlang/lib/ic-4.2.29/ebin'
p148
aS'/usr/local/lib/erlang/lib/ic-4.2.29/examples'
p149
aS'/usr/local/lib/erlang/lib/ic-4.2.29/examples/all-against-all'
p150
aS'/usr/local/lib/erlang/lib/ic-4.2.29/examples/c-client'
p151
aS'/usr/local/lib/erlang/lib/ic-4.2.29/examples/c-server'
p152
aS'/usr/local/lib/erlang/lib/ic-4.2.29/examples/erl-genserv'
p153
aS'/usr/local/lib/erlang/lib/ic-4.2.29/examples/erl-plain'
p154
aS'/usr/local/lib/erlang/lib/ic-4.2.29/examples/java-client-server'
p155
aS'/usr/local/lib/erlang/lib/ic-4.2.29/examples/pre_post_condition'
p156
aS'/usr/local/lib/erlang/lib/ic-4.2.29/include'
p157
aS'/usr/local/lib/erlang/lib/ic-4.2.29/java_src'
p158
aS'/usr/local/lib/erlang/lib/ic-4.2.29/java_src/com'
p159
aS'/usr/local/lib/erlang/lib/ic-4.2.29/java_src/com/ericsson'
p160
aS'/usr/local/lib/erlang/lib/ic-4.2.29/java_src/com/ericsson/otp'
p161
aS'/usr/local/lib/erlang/lib/ic-4.2.29/java_src/com/ericsson/otp/ic'
p162
aS'/usr/local/lib/erlang/lib/ic-4.2.29/priv'
p163
aS'/usr/local/lib/erlang/lib/ic-4.2.29/priv/lib'
p164
aS'/usr/local/lib/erlang/lib/ic-4.2.29/src'
p165
aS'/usr/local/lib/erlang/lib/inets-5.8'
p166
aS'/usr/local/lib/erlang/lib/inets-5.8/ebin'
p167
aS'/usr/local/lib/erlang/lib/inets-5.8/examples'
p168
aS'/usr/local/lib/erlang/lib/inets-5.8/examples/httpd_load_test'
p169
aS'/usr/local/lib/erlang/lib/inets-5.8/examples/server_root'
p170
aS'/usr/local/lib/erlang/lib/inets-5.8/examples/server_root/auth'
p171
aS'/usr/local/lib/erlang/lib/inets-5.8/examples/server_root/cgi-bin'
p172
aS'/usr/local/lib/erlang/lib/inets-5.8/examples/server_root/conf'
p173
aS'/usr/local/lib/erlang/lib/inets-5.8/examples/server_root/htdocs'
p174
aS'/usr/local/lib/erlang/lib/inets-5.8/examples/server_root/htdocs/misc'
p175
aS'/usr/local/lib/erlang/lib/inets-5.8/examples/server_root/htdocs/mnesia_open'
p176
aS'/usr/local/lib/erlang/lib/inets-5.8/examples/server_root/htdocs/mnesia_secret'
p177
aS'/usr/local/lib/erlang/lib/inets-5.8/examples/server_root/htdocs/mnesia_secret/top_secret'
p178
aS'/usr/local/lib/erlang/lib/inets-5.8/examples/server_root/htdocs/open'
p179
aS'/usr/local/lib/erlang/lib/inets-5.8/examples/server_root/htdocs/secret'
p180
aS'/usr/local/lib/erlang/lib/inets-5.8/examples/server_root/htdocs/secret/top_secret'
p181
aS'/usr/local/lib/erlang/lib/inets-5.8/examples/server_root/icons'
p182
aS'/usr/local/lib/erlang/lib/inets-5.8/examples/server_root/logs'
p183
aS'/usr/local/lib/erlang/lib/inets-5.8/examples/server_root/ssl'
p184
aS'/usr/local/lib/erlang/lib/inets-5.8/include'
p185
aS'/usr/local/lib/erlang/lib/inets-5.8/priv'
p186
aS'/usr/local/lib/erlang/lib/inets-5.8/priv/bin'
p187
aS'/usr/local/lib/erlang/lib/inets-5.8/src'
p188
aS'/usr/local/lib/erlang/lib/inets-5.8/src/ftp'
p189
aS'/usr/local/lib/erlang/lib/inets-5.8/src/http_client'
p190
aS'/usr/local/lib/erlang/lib/inets-5.8/src/http_lib'
p191
aS'/usr/local/lib/erlang/lib/inets-5.8/src/http_server'
p192
aS'/usr/local/lib/erlang/lib/inets-5.8/src/inets_app'
p193
aS'/usr/local/lib/erlang/lib/inets-5.8/src/tftp'
p194
aS'/usr/local/lib/erlang/lib/inviso-0.6.3'
p195
aS'/usr/local/lib/erlang/lib/inviso-0.6.3/ebin'
p196
aS'/usr/local/lib/erlang/lib/inviso-0.6.3/src'
p197
aS'/usr/local/lib/erlang/lib/jinterface-1.5.5'
p198
aS'/usr/local/lib/erlang/lib/jinterface-1.5.5/java_src'
p199
aS'/usr/local/lib/erlang/lib/jinterface-1.5.5/java_src/com'
p200
aS'/usr/local/lib/erlang/lib/jinterface-1.5.5/java_src/com/ericsson'
p201
aS'/usr/local/lib/erlang/lib/jinterface-1.5.5/java_src/com/ericsson/otp'
p202
aS'/usr/local/lib/erlang/lib/jinterface-1.5.5/java_src/com/ericsson/otp/erlang'
p203
aS'/usr/local/lib/erlang/lib/jinterface-1.5.5/priv'
p204
aS'/usr/local/lib/erlang/lib/kernel-2.15'
p205
aS'/usr/local/lib/erlang/lib/kernel-2.15/ebin'
p206
aS'/usr/local/lib/erlang/lib/kernel-2.15/examples'
p207
aS'/usr/local/lib/erlang/lib/kernel-2.15/examples/uds_dist'
p208
aS'/usr/local/lib/erlang/lib/kernel-2.15/examples/uds_dist/c_src'
p209
aS'/usr/local/lib/erlang/lib/kernel-2.15/examples/uds_dist/ebin'
p210
aS'/usr/local/lib/erlang/lib/kernel-2.15/examples/uds_dist/priv'
p211
aS'/usr/local/lib/erlang/lib/kernel-2.15/examples/uds_dist/src'
p212
aS'/usr/local/lib/erlang/lib/kernel-2.15/include'
p213
aS'/usr/local/lib/erlang/lib/kernel-2.15/src'
p214
aS'/usr/local/lib/erlang/lib/megaco-3.16'
p215
aS'/usr/local/lib/erlang/lib/megaco-3.16/ebin'
p216
aS'/usr/local/lib/erlang/lib/megaco-3.16/examples'
p217
aS'/usr/local/lib/erlang/lib/megaco-3.16/examples/meas'
p218
aS'/usr/local/lib/erlang/lib/megaco-3.16/examples/simple'
p219
aS'/usr/local/lib/erlang/lib/megaco-3.16/include'
p220
aS'/usr/local/lib/erlang/lib/megaco-3.16/priv'
p221
aS'/usr/local/lib/erlang/lib/megaco-3.16/priv/lib'
p222
aS'/usr/local/lib/erlang/lib/megaco-3.16/src'
p223
aS'/usr/local/lib/erlang/lib/megaco-3.16/src/app'
p224
aS'/usr/local/lib/erlang/lib/megaco-3.16/src/binary'
p225
aS'/usr/local/lib/erlang/lib/megaco-3.16/src/engine'
p226
aS'/usr/local/lib/erlang/lib/megaco-3.16/src/flex'
p227
aS'/usr/local/lib/erlang/lib/megaco-3.16/src/tcp'
p228
aS'/usr/local/lib/erlang/lib/megaco-3.16/src/text'
p229
aS'/usr/local/lib/erlang/lib/megaco-3.16/src/udp'
p230
aS'/usr/local/lib/erlang/lib/mnesia-4.6'
p231
aS'/usr/local/lib/erlang/lib/mnesia-4.6/ebin'
p232
aS'/usr/local/lib/erlang/lib/mnesia-4.6/examples'
p233
aS'/usr/local/lib/erlang/lib/mnesia-4.6/examples/bench'
p234
aS'/usr/local/lib/erlang/lib/mnesia-4.6/include'
p235
aS'/usr/local/lib/erlang/lib/mnesia-4.6/src'
p236
aS'/usr/local/lib/erlang/lib/mochiweb'
p237
aS'/usr/local/lib/erlang/lib/mochiweb/ebin'
p238
aS'/usr/local/lib/erlang/lib/mochiweb/examples'
p239
aS'/usr/local/lib/erlang/lib/mochiweb/examples/hmac_api'
p240
aS'/usr/local/lib/erlang/lib/mochiweb/examples/https'
p241
aS'/usr/local/lib/erlang/lib/mochiweb/examples/keepalive'
p242
aS'/usr/local/lib/erlang/lib/mochiweb/include'
p243
aS'/usr/local/lib/erlang/lib/mochiweb/scripts'
p244
aS'/usr/local/lib/erlang/lib/mochiweb/src'
p245
aS'/usr/local/lib/erlang/lib/mochiweb/support'
p246
aS'/usr/local/lib/erlang/lib/mochiweb/support/templates'
p247
aS'/usr/local/lib/erlang/lib/mochiweb/support/templates/mochiwebapp_skel'
p248
aS'/usr/local/lib/erlang/lib/mochiweb/support/templates/mochiwebapp_skel/priv'
p249
aS'/usr/local/lib/erlang/lib/mochiweb/support/templates/mochiwebapp_skel/priv/www'
p250
aS'/usr/local/lib/erlang/lib/mochiweb/support/templates/mochiwebapp_skel/src'
p251
aS'/usr/local/lib/erlang/lib/mochiweb/support/test-materials'
p252
aS'/usr/local/lib/erlang/lib/observer-1.0'
p253
aS'/usr/local/lib/erlang/lib/observer-1.0/ebin'
p254
aS'/usr/local/lib/erlang/lib/observer-1.0/examples'
p255
aS'/usr/local/lib/erlang/lib/observer-1.0/include'
p256
aS'/usr/local/lib/erlang/lib/observer-1.0/priv'
p257
aS'/usr/local/lib/erlang/lib/observer-1.0/priv/bin'
p258
aS'/usr/local/lib/erlang/lib/observer-1.0/priv/crashdump_viewer'
p259
aS'/usr/local/lib/erlang/lib/observer-1.0/src'
p260
aS'/usr/local/lib/erlang/lib/odbc-2.10.12'
p261
aS'/usr/local/lib/erlang/lib/odbc-2.10.12/c_src'
p262
aS'/usr/local/lib/erlang/lib/odbc-2.10.12/ebin'
p263
aS'/usr/local/lib/erlang/lib/odbc-2.10.12/include'
p264
aS'/usr/local/lib/erlang/lib/odbc-2.10.12/priv'
p265
aS'/usr/local/lib/erlang/lib/odbc-2.10.12/priv/bin'
p266
aS'/usr/local/lib/erlang/lib/odbc-2.10.12/priv/obj'
p267
aS'/usr/local/lib/erlang/lib/odbc-2.10.12/src'
p268
aS'/usr/local/lib/erlang/lib/orber-3.6.23'
p269
aS'/usr/local/lib/erlang/lib/orber-3.6.23/COSS'
p270
aS'/usr/local/lib/erlang/lib/orber-3.6.23/COSS/CosNaming'
p271
aS'/usr/local/lib/erlang/lib/orber-3.6.23/ebin'
p272
aS'/usr/local/lib/erlang/lib/orber-3.6.23/examples'
p273
aS'/usr/local/lib/erlang/lib/orber-3.6.23/examples/Stack'
p274
aS'/usr/local/lib/erlang/lib/orber-3.6.23/include'
p275
aS'/usr/local/lib/erlang/lib/orber-3.6.23/java_src'
p276
aS'/usr/local/lib/erlang/lib/orber-3.6.23/java_src/Orber'
p277
aS'/usr/local/lib/erlang/lib/orber-3.6.23/priv'
p278
aS'/usr/local/lib/erlang/lib/orber-3.6.23/priv/include'
p279
aS'/usr/local/lib/erlang/lib/orber-3.6.23/priv/src'
p280
aS'/usr/local/lib/erlang/lib/orber-3.6.23/src'
p281
aS'/usr/local/lib/erlang/lib/os_mon-2.2.8'
p282
aS'/usr/local/lib/erlang/lib/os_mon-2.2.8/ebin'
p283
aS'/usr/local/lib/erlang/lib/os_mon-2.2.8/include'
p284
aS'/usr/local/lib/erlang/lib/os_mon-2.2.8/mibs'
p285
aS'/usr/local/lib/erlang/lib/os_mon-2.2.8/mibs/v1'
p286
aS'/usr/local/lib/erlang/lib/os_mon-2.2.8/priv'
p287
aS'/usr/local/lib/erlang/lib/os_mon-2.2.8/priv/bin'
p288
aS'/usr/local/lib/erlang/lib/os_mon-2.2.8/priv/mibs'
p289
aS'/usr/local/lib/erlang/lib/os_mon-2.2.8/src'
p290
aS'/usr/local/lib/erlang/lib/otp_mibs-1.0.7'
p291
aS'/usr/local/lib/erlang/lib/otp_mibs-1.0.7/ebin'
p292
aS'/usr/local/lib/erlang/lib/otp_mibs-1.0.7/include'
p293
aS'/usr/local/lib/erlang/lib/otp_mibs-1.0.7/mibs'
p294
aS'/usr/local/lib/erlang/lib/otp_mibs-1.0.7/mibs/v1'
p295
aS'/usr/local/lib/erlang/lib/otp_mibs-1.0.7/priv'
p296
aS'/usr/local/lib/erlang/lib/otp_mibs-1.0.7/priv/mibs'
p297
aS'/usr/local/lib/erlang/lib/otp_mibs-1.0.7/src'
p298
aS'/usr/local/lib/erlang/lib/parsetools-2.0.7'
p299
aS'/usr/local/lib/erlang/lib/parsetools-2.0.7/ebin'
p300
aS'/usr/local/lib/erlang/lib/parsetools-2.0.7/include'
p301
aS'/usr/local/lib/erlang/lib/parsetools-2.0.7/src'
p302
aS'/usr/local/lib/erlang/lib/percept-0.8.6.1'
p303
aS'/usr/local/lib/erlang/lib/percept-0.8.6.1/ebin'
p304
aS'/usr/local/lib/erlang/lib/percept-0.8.6.1/priv'
p305
aS'/usr/local/lib/erlang/lib/percept-0.8.6.1/priv/fonts'
p306
aS'/usr/local/lib/erlang/lib/percept-0.8.6.1/priv/logs'
p307
aS'/usr/local/lib/erlang/lib/percept-0.8.6.1/priv/server_root'
p308
aS'/usr/local/lib/erlang/lib/percept-0.8.6.1/priv/server_root/conf'
p309
aS'/usr/local/lib/erlang/lib/percept-0.8.6.1/priv/server_root/css'
p310
aS'/usr/local/lib/erlang/lib/percept-0.8.6.1/priv/server_root/htdocs'
p311
aS'/usr/local/lib/erlang/lib/percept-0.8.6.1/priv/server_root/images'
p312
aS'/usr/local/lib/erlang/lib/percept-0.8.6.1/priv/server_root/scripts'
p313
aS'/usr/local/lib/erlang/lib/percept-0.8.6.1/src'
p314
aS'/usr/local/lib/erlang/lib/pman-2.7.1.1'
p315
aS'/usr/local/lib/erlang/lib/pman-2.7.1.1/ebin'
p316
aS'/usr/local/lib/erlang/lib/pman-2.7.1.1/priv'
p317
aS'/usr/local/lib/erlang/lib/pman-2.7.1.1/src'
p318
aS'/usr/local/lib/erlang/lib/public_key-0.14'
p319
aS'/usr/local/lib/erlang/lib/public_key-0.14/asn1'
p320
aS'/usr/local/lib/erlang/lib/public_key-0.14/ebin'
p321
aS'/usr/local/lib/erlang/lib/public_key-0.14/include'
p322
aS'/usr/local/lib/erlang/lib/public_key-0.14/src'
p323
aS'/usr/local/lib/erlang/lib/reltool-0.5.7.1'
p324
aS'/usr/local/lib/erlang/lib/reltool-0.5.7.1/ebin'
p325
aS'/usr/local/lib/erlang/lib/reltool-0.5.7.1/examples'
p326
aS'/usr/local/lib/erlang/lib/reltool-0.5.7.1/src'
p327
aS'/usr/local/lib/erlang/lib/runtime_tools-1.8.7'
p328
aS'/usr/local/lib/erlang/lib/runtime_tools-1.8.7/ebin'
p329
aS'/usr/local/lib/erlang/lib/runtime_tools-1.8.7/include'
p330
aS'/usr/local/lib/erlang/lib/runtime_tools-1.8.7/priv'
p331
aS'/usr/local/lib/erlang/lib/runtime_tools-1.8.7/priv/lib'
p332
aS'/usr/local/lib/erlang/lib/runtime_tools-1.8.7/src'
p333
aS'/usr/local/lib/erlang/lib/sasl-2.2'
p334
aS'/usr/local/lib/erlang/lib/sasl-2.2/ebin'
p335
aS'/usr/local/lib/erlang/lib/sasl-2.2/examples'
p336
aS'/usr/local/lib/erlang/lib/sasl-2.2/examples/ebin'
p337
aS'/usr/local/lib/erlang/lib/sasl-2.2/examples/src'
p338
aS'/usr/local/lib/erlang/lib/sasl-2.2/src'
p339
aS'/usr/local/lib/erlang/lib/snmp-4.21.4'
p340
aS'/usr/local/lib/erlang/lib/snmp-4.21.4/bin'
p341
aS'/usr/local/lib/erlang/lib/snmp-4.21.4/ebin'
p342
aS'/usr/local/lib/erlang/lib/snmp-4.21.4/examples'
p343
aS'/usr/local/lib/erlang/lib/snmp-4.21.4/examples/ex1'
p344
aS'/usr/local/lib/erlang/lib/snmp-4.21.4/examples/ex2'
p345
aS'/usr/local/lib/erlang/lib/snmp-4.21.4/include'
p346
aS'/usr/local/lib/erlang/lib/snmp-4.21.4/mibs'
p347
aS'/usr/local/lib/erlang/lib/snmp-4.21.4/mibs/v1'
p348
aS'/usr/local/lib/erlang/lib/snmp-4.21.4/priv'
p349
aS'/usr/local/lib/erlang/lib/snmp-4.21.4/priv/conf'
p350
aS'/usr/local/lib/erlang/lib/snmp-4.21.4/priv/conf/agent'
p351
aS'/usr/local/lib/erlang/lib/snmp-4.21.4/priv/conf/manager'
p352
aS'/usr/local/lib/erlang/lib/snmp-4.21.4/priv/mibs'
p353
aS'/usr/local/lib/erlang/lib/snmp-4.21.4/src'
p354
aS'/usr/local/lib/erlang/lib/snmp-4.21.4/src/agent'
p355
aS'/usr/local/lib/erlang/lib/snmp-4.21.4/src/app'
p356
aS'/usr/local/lib/erlang/lib/snmp-4.21.4/src/compiler'
p357
aS'/usr/local/lib/erlang/lib/snmp-4.21.4/src/manager'
p358
aS'/usr/local/lib/erlang/lib/snmp-4.21.4/src/misc'
p359
aS'/usr/local/lib/erlang/lib/ssh-2.0.9'
p360
aS'/usr/local/lib/erlang/lib/ssh-2.0.9/ebin'
p361
aS'/usr/local/lib/erlang/lib/ssh-2.0.9/include'
p362
aS'/usr/local/lib/erlang/lib/ssh-2.0.9/src'
p363
aS'/usr/local/lib/erlang/lib/ssl-5.0'
p364
aS'/usr/local/lib/erlang/lib/ssl-5.0/ebin'
p365
aS'/usr/local/lib/erlang/lib/ssl-5.0/examples'
p366
aS'/usr/local/lib/erlang/lib/ssl-5.0/examples/certs'
p367
aS'/usr/local/lib/erlang/lib/ssl-5.0/examples/certs/etc'
p368
aS'/usr/local/lib/erlang/lib/ssl-5.0/examples/certs/etc/client'
p369
aS'/usr/local/lib/erlang/lib/ssl-5.0/examples/certs/etc/erlangCA'
p370
aS'/usr/local/lib/erlang/lib/ssl-5.0/examples/certs/etc/otpCA'
p371
aS'/usr/local/lib/erlang/lib/ssl-5.0/examples/certs/etc/server'
p372
aS'/usr/local/lib/erlang/lib/ssl-5.0/examples/ebin'
p373
aS'/usr/local/lib/erlang/lib/ssl-5.0/examples/src'
p374
aS'/usr/local/lib/erlang/lib/ssl-5.0/src'
p375
aS'/usr/local/lib/erlang/lib/stdlib-1.18'
p376
aS'/usr/local/lib/erlang/lib/stdlib-1.18/ebin'
p377
aS'/usr/local/lib/erlang/lib/stdlib-1.18/examples'
p378
aS'/usr/local/lib/erlang/lib/stdlib-1.18/include'
p379
aS'/usr/local/lib/erlang/lib/stdlib-1.18/src'
p380
aS'/usr/local/lib/erlang/lib/syntax_tools-1.6.7.2'
p381
aS'/usr/local/lib/erlang/lib/syntax_tools-1.6.7.2/ebin'
p382
aS'/usr/local/lib/erlang/lib/syntax_tools-1.6.7.2/examples'
p383
aS'/usr/local/lib/erlang/lib/syntax_tools-1.6.7.2/src'
p384
aS'/usr/local/lib/erlang/lib/test_server-3.5'
p385
aS'/usr/local/lib/erlang/lib/test_server-3.5/ebin'
p386
aS'/usr/local/lib/erlang/lib/test_server-3.5/include'
p387
aS'/usr/local/lib/erlang/lib/test_server-3.5/src'
p388
aS'/usr/local/lib/erlang/lib/toolbar-1.4.2.1'
p389
aS'/usr/local/lib/erlang/lib/toolbar-1.4.2.1/ebin'
p390
aS'/usr/local/lib/erlang/lib/toolbar-1.4.2.1/src'
p391
aS'/usr/local/lib/erlang/lib/tools-2.6.6.6'
p392
aS'/usr/local/lib/erlang/lib/tools-2.6.6.6/bin'
p393
aS'/usr/local/lib/erlang/lib/tools-2.6.6.6/c_src'
p394
aS'/usr/local/lib/erlang/lib/tools-2.6.6.6/ebin'
p395
aS'/usr/local/lib/erlang/lib/tools-2.6.6.6/emacs'
p396
aS'/usr/local/lib/erlang/lib/tools-2.6.6.6/examples'
p397
aS'/usr/local/lib/erlang/lib/tools-2.6.6.6/priv'
p398
aS'/usr/local/lib/erlang/lib/tools-2.6.6.6/src'
p399
aS'/usr/local/lib/erlang/lib/tv-2.1.4.8'
p400
aS'/usr/local/lib/erlang/lib/tv-2.1.4.8/ebin'
p401
aS'/usr/local/lib/erlang/lib/tv-2.1.4.8/priv'
p402
aS'/usr/local/lib/erlang/lib/tv-2.1.4.8/src'
p403
aS'/usr/local/lib/erlang/lib/typer-0.9.3'
p404
aS'/usr/local/lib/erlang/lib/typer-0.9.3/ebin'
p405
aS'/usr/local/lib/erlang/lib/typer-0.9.3/src'
p406
aS'/usr/local/lib/erlang/lib/webtool-0.8.9.1'
p407
aS'/usr/local/lib/erlang/lib/webtool-0.8.9.1/ebin'
p408
aS'/usr/local/lib/erlang/lib/webtool-0.8.9.1/priv'
p409
aS'/usr/local/lib/erlang/lib/webtool-0.8.9.1/priv/bin'
p410
aS'/usr/local/lib/erlang/lib/webtool-0.8.9.1/priv/root'
p411
aS'/usr/local/lib/erlang/lib/webtool-0.8.9.1/priv/root/conf'
p412
aS'/usr/local/lib/erlang/lib/webtool-0.8.9.1/priv/root/doc'
p413
aS'/usr/local/lib/erlang/lib/webtool-0.8.9.1/src'
p414
aS'/usr/local/lib/erlang/lib/wx-0.99.1'
p415
aS'/usr/local/lib/erlang/lib/wx-0.99.1/ebin'
p416
aS'/usr/local/lib/erlang/lib/wx-0.99.1/examples'
p417
aS'/usr/local/lib/erlang/lib/wx-0.99.1/examples/demo'
p418
aS'/usr/local/lib/erlang/lib/wx-0.99.1/examples/simple'
p419
aS'/usr/local/lib/erlang/lib/wx-0.99.1/examples/sudoku'
p420
aS'/usr/local/lib/erlang/lib/wx-0.99.1/examples/xrc'
p421
aS'/usr/local/lib/erlang/lib/wx-0.99.1/examples/xrc/rc'
p422
aS'/usr/local/lib/erlang/lib/wx-0.99.1/include'
p423
aS'/usr/local/lib/erlang/lib/wx-0.99.1/priv'
p424
aS'/usr/local/lib/erlang/lib/wx-0.99.1/src'
p425
aS'/usr/local/lib/erlang/lib/wx-0.99.1/src/gen'
p426
aS'/usr/local/lib/erlang/lib/xmerl-1.3'
p427
aS'/usr/local/lib/erlang/lib/xmerl-1.3/ebin'
p428
aS'/usr/local/lib/erlang/lib/xmerl-1.3/include'
p429
aS'/usr/local/lib/erlang/lib/xmerl-1.3/src'
p430
a.